target datalayout = "e-m:e-p270:32:32-p271:32:32-p272:64:64-i64:64-i128:128-f80:128-n8:16:32:64-S128"
target triple = "x86_64-pc-linux-gnu"

%struct.strbuf = type { i64, i64, ptr }
%struct.active_request_slot = type { ptr, i32, i32, i64, ptr, ptr, ptr, ptr, ptr }
%struct.object_id = type { [32 x i8], i32 }
%struct.repository = type { ptr, ptr, ptr, ptr, ptr, %struct.strmap, %struct.strmap, %struct.repo_path_cache, ptr, ptr, ptr, ptr, %struct.repo_settings, ptr, ptr, ptr, ptr, ptr, ptr, i32, i32, i32, ptr, ptr, i32, i32, i8 }
%struct.strmap = type { %struct.hashmap, ptr, i8 }
%struct.hashmap = type { ptr, ptr, ptr, i32, i32, i32, i32, i8 }
%struct.repo_path_cache = type { ptr, ptr, ptr, ptr, ptr, ptr, ptr }
%struct.repo_settings = type { i32, i32, i32, i32, i32, i32, i32, i32, i32, i32, i32, i32, ptr, i32, i32, i32, i32, i32, i32, i32, i64, i64, i64 }
%struct.git_hash_algo = type { ptr, i32, i64, i64, i64, ptr, ptr, ptr, ptr, ptr, ptr, ptr, ptr, ptr }
%struct.http_object_request = type { ptr, %struct.strbuf, i32, i32, [256 x i8], i64, %struct.object_id, %struct.object_id, %union.git_hash_ctx, %struct.git_zstream, i32, i32, ptr, ptr }
%union.git_hash_ctx = type { %struct.SHA1_CTX }
%struct.SHA1_CTX = type { i64, [5 x i32], [64 x i8], i32, i32, i32, i32, i32, ptr, [5 x i32], [5 x i32], [80 x i32], [80 x i32], [80 x [5 x i32]] }
%struct.git_zstream = type { %struct.z_stream_s, i64, i64, i64, i64, ptr, ptr }
%struct.z_stream_s = type { ptr, i32, i64, ptr, i32, i64, ptr, ptr, ptr, ptr, ptr, i32, i64, i64 }

@.str = private unnamed_addr constant [7 x i8] c"http.c\00", align 1
@the_repository = external global ptr, align 8
@.str.210 = private unnamed_addr constant [43 x i8] c"curl_easy_getinfo for HTTP code failed: %s\00", align 1

; Function Attrs: nounwind uwtable
define internal i64 @fwrite_sha1_file(ptr noundef %0, i64 noundef %1, i64 noundef %2, ptr noundef %3) #0 {
  %5 = alloca i64, align 8
  %6 = alloca ptr, align 8
  %7 = alloca i64, align 8
  %8 = alloca i64, align 8
  %9 = alloca ptr, align 8
  %10 = alloca [4096 x i8], align 16
  %11 = alloca i64, align 8
  %12 = alloca i32, align 4
  %13 = alloca ptr, align 8
  %14 = alloca ptr, align 8
  %15 = alloca i32, align 4
  %16 = alloca i32, align 4
  %17 = alloca i64, align 8
  store ptr %0, ptr %6, align 8, !tbaa !4
  store i64 %1, ptr %7, align 8, !tbaa !9
  store i64 %2, ptr %8, align 8, !tbaa !9
  store ptr %3, ptr %9, align 8, !tbaa !11
  call void @llvm.lifetime.start.p0(i64 4096, ptr %10) #11
  call void @llvm.lifetime.start.p0(i64 8, ptr %11) #11
  %18 = load i64, ptr %7, align 8, !tbaa !9
  %19 = load i64, ptr %8, align 8, !tbaa !9
  %20 = mul i64 %18, %19
  store i64 %20, ptr %11, align 8, !tbaa !9
  call void @llvm.lifetime.start.p0(i64 4, ptr %12) #11
  store i32 0, ptr %12, align 4, !tbaa !19
  call void @llvm.lifetime.start.p0(i64 8, ptr %13) #11
  %21 = load ptr, ptr %9, align 8, !tbaa !11
  store ptr %21, ptr %13, align 8, !tbaa !201
  call void @llvm.lifetime.start.p0(i64 8, ptr %14) #11
  %22 = load ptr, ptr %13, align 8, !tbaa !201
  %23 = getelementptr inbounds nuw %struct.http_object_request, ptr %22, i32 0, i32 12
  %24 = load ptr, ptr %23, align 8, !tbaa !213
  store ptr %24, ptr %14, align 8, !tbaa !88
  %25 = load ptr, ptr %14, align 8, !tbaa !88
  %26 = icmp ne ptr %25, null
  br i1 %26, label %27, label %50

27:                                               ; preds = %4
  call void @llvm.lifetime.start.p0(i64 4, ptr %15) #11
  %28 = load ptr, ptr %14, align 8, !tbaa !88
  %29 = getelementptr inbounds nuw %struct.active_request_slot, ptr %28, i32 0, i32 0
  %30 = load ptr, ptr %29, align 8, !tbaa !94
  %31 = load ptr, ptr %14, align 8, !tbaa !88
  %32 = getelementptr inbounds nuw %struct.active_request_slot, ptr %31, i32 0, i32 3
  %33 = call i32 (ptr, i32, ...) @curl_easy_getinfo(ptr noundef %30, i32 noundef 2097154, ptr noundef %32)
  store i32 %33, ptr %15, align 4, !tbaa !19
  %34 = load i32, ptr %15, align 4, !tbaa !19
  %35 = icmp ne i32 %34, 0
  br i1 %35, label %36, label %39

36:                                               ; preds = %27
  %37 = load i32, ptr %15, align 4, !tbaa !19
  %38 = call ptr @curl_easy_strerror(i32 noundef %37)
  call void (ptr, i32, ptr, ...) @BUG_fl(ptr noundef @.str, i32 noundef 2581, ptr noundef @.str.210, ptr noundef %38) #12
  unreachable

39:                                               ; preds = %27
  %40 = load ptr, ptr %14, align 8, !tbaa !88
  %41 = getelementptr inbounds nuw %struct.active_request_slot, ptr %40, i32 0, i32 3
  %42 = load i64, ptr %41, align 8, !tbaa !216
  %43 = icmp sge i64 %42, 300
  br i1 %43, label %44, label %46

44:                                               ; preds = %39
  %45 = load i64, ptr %8, align 8, !tbaa !9
  store i64 %45, ptr %5, align 8
  store i32 1, ptr %16, align 4
  br label %47

46:                                               ; preds = %39
  store i32 0, ptr %16, align 4
  br label %47

47:                                               ; preds = %46, %44
  call void @llvm.lifetime.end.p0(i64 4, ptr %15) #11
  %48 = load i32, ptr %16, align 4
  switch i32 %48, label %135 [
    i32 0, label %49
  ]

49:                                               ; preds = %47
  br label %50

50:                                               ; preds = %49, %4
  br label %51

51:                                               ; preds = %80, %50
  call void @llvm.lifetime.start.p0(i64 8, ptr %17) #11
  %52 = load ptr, ptr %13, align 8, !tbaa !201
  %53 = getelementptr inbounds nuw %struct.http_object_request, ptr %52, i32 0, i32 2
  %54 = load i32, ptr %53, align 8, !tbaa !203
  %55 = load ptr, ptr %6, align 8, !tbaa !4
  %56 = load i32, ptr %12, align 4, !tbaa !19
  %57 = sext i32 %56 to i64
  %58 = getelementptr inbounds i8, ptr %55, i64 %57
  %59 = load i64, ptr %11, align 8, !tbaa !9
  %60 = load i32, ptr %12, align 4, !tbaa !19
  %61 = sext i32 %60 to i64
  %62 = sub i64 %59, %61
  %63 = call i64 @xwrite(i32 noundef %54, ptr noundef %58, i64 noundef %62)
  store i64 %63, ptr %17, align 8, !tbaa !9
  %64 = load i64, ptr %17, align 8, !tbaa !9
  %65 = icmp slt i64 %64, 0
  br i1 %65, label %66, label %71

66:                                               ; preds = %51
  %67 = load i32, ptr %12, align 4, !tbaa !19
  %68 = sext i32 %67 to i64
  %69 = load i64, ptr %7, align 8, !tbaa !9
  %70 = udiv i64 %68, %69
  store i64 %70, ptr %5, align 8
  store i32 1, ptr %16, align 4
  br label %77

71:                                               ; preds = %51
  %72 = load i64, ptr %17, align 8, !tbaa !9
  %73 = load i32, ptr %12, align 4, !tbaa !19
  %74 = sext i32 %73 to i64
  %75 = add nsw i64 %74, %72
  %76 = trunc i64 %75 to i32
  store i32 %76, ptr %12, align 4, !tbaa !19
  store i32 0, ptr %16, align 4
  br label %77

77:                                               ; preds = %71, %66
  call void @llvm.lifetime.end.p0(i64 8, ptr %17) #11
  %78 = load i32, ptr %16, align 4
  switch i32 %78, label %135 [
    i32 0, label %79
  ]

79:                                               ; preds = %77
  br label %80

80:                                               ; preds = %79
  %81 = load i32, ptr %12, align 4, !tbaa !19
  %82 = sext i32 %81 to i64
  %83 = load i64, ptr %11, align 8, !tbaa !9
  %84 = icmp ult i64 %82, %83
  br i1 %84, label %51, label %85, !llvm.loop !217

85:                                               ; preds = %80
  %86 = load i64, ptr %11, align 8, !tbaa !9
  %87 = load ptr, ptr %13, align 8, !tbaa !201
  %88 = getelementptr inbounds nuw %struct.http_object_request, ptr %87, i32 0, i32 9
  %89 = getelementptr inbounds nuw %struct.git_zstream, ptr %88, i32 0, i32 1
  store i64 %86, ptr %89, align 8, !tbaa !218
  %90 = load ptr, ptr %6, align 8, !tbaa !4
  %91 = load ptr, ptr %13, align 8, !tbaa !201
  %92 = getelementptr inbounds nuw %struct.http_object_request, ptr %91, i32 0, i32 9
  %93 = getelementptr inbounds nuw %struct.git_zstream, ptr %92, i32 0, i32 5
  store ptr %90, ptr %93, align 8, !tbaa !219
  br label %94

94:                                               ; preds = %131, %85
  %95 = getelementptr inbounds [4096 x i8], ptr %10, i64 0, i64 0
  %96 = load ptr, ptr %13, align 8, !tbaa !201
  %97 = getelementptr inbounds nuw %struct.http_object_request, ptr %96, i32 0, i32 9
  %98 = getelementptr inbounds nuw %struct.git_zstream, ptr %97, i32 0, i32 6
  store ptr %95, ptr %98, align 8, !tbaa !220
  %99 = load ptr, ptr %13, align 8, !tbaa !201
  %100 = getelementptr inbounds nuw %struct.http_object_request, ptr %99, i32 0, i32 9
  %101 = getelementptr inbounds nuw %struct.git_zstream, ptr %100, i32 0, i32 2
  store i64 4096, ptr %101, align 8, !tbaa !221
  %102 = load ptr, ptr %13, align 8, !tbaa !201
  %103 = getelementptr inbounds nuw %struct.http_object_request, ptr %102, i32 0, i32 9
  %104 = call i32 @git_inflate(ptr noundef %103, i32 noundef 2)
  %105 = load ptr, ptr %13, align 8, !tbaa !201
  %106 = getelementptr inbounds nuw %struct.http_object_request, ptr %105, i32 0, i32 10
  store i32 %104, ptr %106, align 8, !tbaa !222
  %107 = load ptr, ptr @the_repository, align 8, !tbaa !66
  %108 = getelementptr inbounds nuw %struct.repository, ptr %107, i32 0, i32 17
  %109 = load ptr, ptr %108, align 8, !tbaa !158
  %110 = getelementptr inbounds nuw %struct.git_hash_algo, ptr %109, i32 0, i32 7
  %111 = load ptr, ptr %110, align 8, !tbaa !223
  %112 = load ptr, ptr %13, align 8, !tbaa !201
  %113 = getelementptr inbounds nuw %struct.http_object_request, ptr %112, i32 0, i32 8
  %114 = getelementptr inbounds [4096 x i8], ptr %10, i64 0, i64 0
  %115 = load ptr, ptr %13, align 8, !tbaa !201
  %116 = getelementptr inbounds nuw %struct.http_object_request, ptr %115, i32 0, i32 9
  %117 = getelementptr inbounds nuw %struct.git_zstream, ptr %116, i32 0, i32 2
  %118 = load i64, ptr %117, align 8, !tbaa !221
  %119 = sub i64 4096, %118
  call void %111(ptr noundef %113, ptr noundef %114, i64 noundef %119)
  br label %120

120:                                              ; preds = %94
  %121 = load ptr, ptr %13, align 8, !tbaa !201
  %122 = getelementptr inbounds nuw %struct.http_object_request, ptr %121, i32 0, i32 9
  %123 = getelementptr inbounds nuw %struct.git_zstream, ptr %122, i32 0, i32 1
  %124 = load i64, ptr %123, align 8, !tbaa !218
  %125 = icmp ne i64 %124, 0
  br i1 %125, label %126, label %131

126:                                              ; preds = %120
  %127 = load ptr, ptr %13, align 8, !tbaa !201
  %128 = getelementptr inbounds nuw %struct.http_object_request, ptr %127, i32 0, i32 10
  %129 = load i32, ptr %128, align 8, !tbaa !222
  %130 = icmp eq i32 %129, 0
  br label %131

131:                                              ; preds = %126, %120
  %132 = phi i1 [ false, %120 ], [ %130, %126 ]
  br i1 %132, label %94, label %133, !llvm.loop !224

133:                                              ; preds = %131
  %134 = load i64, ptr %8, align 8, !tbaa !9
  store i64 %134, ptr %5, align 8
  store i32 1, ptr %16, align 4
  br label %135

135:                                              ; preds = %133, %77, %47
  call void @llvm.lifetime.end.p0(i64 8, ptr %14) #11
  call void @llvm.lifetime.end.p0(i64 8, ptr %13) #11
  call void @llvm.lifetime.end.p0(i64 4, ptr %12) #11
  call void @llvm.lifetime.end.p0(i64 8, ptr %11) #11
  call void @llvm.lifetime.end.p0(i64 4096, ptr %10) #11
  %136 = load i64, ptr %5, align 8
  ret i64 %136
}