; Function Attrs: nounwind uwtable
define internal i64 @fwrite_sha1_file(ptr noundef %0, i64 noundef %1, i64 noundef %2, ptr noundef %3) #3 {
  %5 = alloca [4096 x i8], align 16
  call void @llvm.lifetime.start.p0(i64 4096, ptr nonnull %5) #22
  %6 = mul i64 %2, %1
  %7 = getelementptr inbounds nuw i8, ptr %3, i64 2944
  %8 = load ptr, ptr %7, align 8, !tbaa !187
  %.not = icmp eq ptr %8, null
  br i1 %.not, label %18, label %9

9:                                                ; preds = %4
  %10 = load ptr, ptr %8, align 8, !tbaa !87
  %11 = getelementptr inbounds nuw i8, ptr %8, i64 16
  %12 = tail call i32 (ptr, i32, ...) @curl_easy_getinfo(ptr noundef %10, i32 noundef 2097154, ptr noundef nonnull %11) #22
  %.not46 = icmp eq i32 %12, 0
  br i1 %.not46, label %15, label %13

13:                                               ; preds = %9
  %14 = tail call ptr @curl_easy_strerror(i32 noundef %12) #22
  tail call void (ptr, i32, ptr, ...) @BUG_fl(ptr noundef nonnull @.str, i32 noundef 2581, ptr noundef nonnull @.str.210, ptr noundef %14) #21
  unreachable

15:                                               ; preds = %9
  %16 = load i64, ptr %11, align 8, !tbaa !102
  %17 = icmp slt i64 %16, 300
  br i1 %17, label %18, label %.critedge

18:                                               ; preds = %15, %4
  %19 = getelementptr inbounds nuw i8, ptr %3, i64 32
  br label %20

20:                                               ; preds = %29, %18
  %.041 = phi i32 [ 0, %18 ], [ %31, %29 ]
  %21 = load i32, ptr %19, align 8, !tbaa !178
  %22 = sext i32 %.041 to i64
  %23 = getelementptr inbounds i8, ptr %0, i64 %22
  %24 = sub i64 %6, %22
  %25 = tail call i64 @xwrite(i32 noundef %21, ptr noundef %23, i64 noundef %24) #22
  %26 = icmp sgt i64 %25, -1
  br i1 %26, label %29, label %27

27:                                               ; preds = %20
  %28 = udiv i64 %22, %1
  br label %.critedge

29:                                               ; preds = %20
  %30 = trunc i64 %25 to i32
  %31 = add i32 %.041, %30
  %32 = sext i32 %31 to i64
  %33 = icmp ugt i64 %6, %32
  br i1 %33, label %20, label %34, !llvm.loop !189

34:                                               ; preds = %29
  %35 = getelementptr inbounds nuw i8, ptr %3, i64 2776
  %36 = getelementptr inbounds nuw i8, ptr %3, i64 2888
  store i64 %6, ptr %36, align 8, !tbaa !190
  %37 = getelementptr inbounds nuw i8, ptr %3, i64 2920
  store ptr %0, ptr %37, align 8, !tbaa !191
  %38 = getelementptr inbounds nuw i8, ptr %3, i64 2928
  %39 = getelementptr inbounds nuw i8, ptr %3, i64 2896
  %40 = getelementptr inbounds nuw i8, ptr %3, i64 2936
  %41 = getelementptr inbounds nuw i8, ptr %3, i64 376
  br label %42

42:                                               ; preds = %52, %34
  store ptr %5, ptr %38, align 8, !tbaa !192
  store i64 4096, ptr %39, align 8, !tbaa !193
  %43 = call i32 @git_inflate(ptr noundef nonnull %35, i32 noundef 2) #22
  store i32 %43, ptr %40, align 8, !tbaa !194
  %44 = load ptr, ptr @the_repository, align 8, !tbaa !39
  %45 = getelementptr inbounds nuw i8, ptr %44, i64 400
  %46 = load ptr, ptr %45, align 8, !tbaa !139
  %47 = getelementptr inbounds nuw i8, ptr %46, i64 56
  %48 = load ptr, ptr %47, align 8, !tbaa !195
  %49 = load i64, ptr %39, align 8, !tbaa !193
  %50 = sub i64 4096, %49
  call void %48(ptr noundef nonnull %41, ptr noundef nonnull %5, i64 noundef %50) #22
  %51 = load i64, ptr %36, align 8, !tbaa !190
  %.not47 = icmp eq i64 %51, 0
  br i1 %.not47, label %.critedge, label %52

52:                                               ; preds = %42
  %53 = load i32, ptr %40, align 8, !tbaa !194
  %54 = icmp eq i32 %53, 0
  br i1 %54, label %42, label %.critedge, !llvm.loop !196

.critedge:                                        ; preds = %52, %42, %27, %15
  %.2 = phi i64 [ %28, %27 ], [ %2, %15 ], [ %2, %42 ], [ %2, %52 ]
  call void @llvm.lifetime.end.p0(i64 4096, ptr nonnull %5) #22
  ret i64 %.2
}